; Function Attrs: mustprogress nofree nounwind willreturn memory(write, argmem: readwrite, inaccessiblemem: readwrite) uwtable
define void @_ZN32pxrInternal_v0_24__pxrReserved__24GfConvertDisplayToLinearERKNS_7GfVec4dE(ptr dead_on_unwind noalias writable writeonly sret(%"class.pxrInternal_v0_24__pxrReserved__::GfVec4d") align 8 captures(none) initializes((0, 32)) %0, ptr noundef nonnull readonly align 8 captures(none) dereferenceable(32) %1) local_unnamed_addr #5 {
  tail call void @llvm.experimental.noalias.scope.decl(metadata !25)
  tail call void @llvm.experimental.noalias.scope.decl(metadata !28)
  %3 = load double, ptr %1, align 8, !noalias !31
  %4 = tail call double @pow(double noundef %3, double noundef 2.200000e+00) #8, !noalias !31
  %5 = getelementptr inbounds nuw i8, ptr %1, i64 8
  %6 = load double, ptr %5, align 8, !noalias !31
  %7 = tail call double @pow(double noundef %6, double noundef 2.200000e+00) #8, !noalias !31
  %8 = getelementptr inbounds nuw i8, ptr %1, i64 16
  %9 = load double, ptr %8, align 8, !noalias !31
  %10 = tail call double @pow(double noundef %9, double noundef 2.200000e+00) #8, !noalias !31
  %11 = getelementptr inbounds nuw i8, ptr %1, i64 24
  %12 = load double, ptr %11, align 8, !noalias !31
  store double %4, ptr %0, align 8, !alias.scope !31
  %13 = getelementptr inbounds nuw i8, ptr %0, i64 8
  store double %7, ptr %13, align 8, !alias.scope !31
  %14 = getelementptr inbounds nuw i8, ptr %0, i64 16
  store double %10, ptr %14, align 8, !alias.scope !31
  %15 = getelementptr inbounds nuw i8, ptr %0, i64 24
  store double %12, ptr %15, align 8, !alias.scope !31
  ret void
}